; Function Attrs: mustprogress uwtable
define noundef signext i8 @_ZN6icu_7517UCharsTrieBuilder14ensureCapacityEi(ptr nocapture noundef nonnull align 8 dereferenceable(112) %this, i32 noundef %length) local_unnamed_addr #0 align 2 {
entry:
  %uchars = getelementptr inbounds i8, ptr %this, i64 96
  %0 = load ptr, ptr %uchars, align 8
  %cmp = icmp eq ptr %0, null
  br i1 %cmp, label %return, label %if.end

if.end:                                           ; preds = %entry
  %ucharsCapacity = getelementptr inbounds i8, ptr %this, i64 104
  %1 = load i32, ptr %ucharsCapacity, align 8
  %cmp2 = icmp slt i32 %1, %length
  br i1 %cmp2, label %do.body, label %return

do.body:                                          ; preds = %if.end, %do.body
  %newCapacity.0 = phi i32 [ %mul, %do.body ], [ %1, %if.end ]
  %mul = shl nsw i32 %newCapacity.0, 1
  %cmp5.not = icmp sgt i32 %mul, %length
  br i1 %cmp5.not, label %do.end, label %do.body, !llvm.loop !22

do.end:                                           ; preds = %do.body
  %mul6 = shl nsw i32 %newCapacity.0, 2
  %conv = sext i32 %mul6 to i64
  %call = tail call noalias ptr @uprv_malloc_75(i64 noundef %conv) #13
  %cmp7 = icmp eq ptr %call, null
  br i1 %cmp7, label %return.sink.split, label %if.end12

if.end12:                                         ; preds = %do.end
  %ucharsLength = getelementptr inbounds i8, ptr %this, i64 108
  %2 = load i32, ptr %ucharsLength, align 4
  %sub = sub nsw i32 %mul, %2
  %idx.ext = sext i32 %sub to i64
  %add.ptr = getelementptr inbounds i16, ptr %call, i64 %idx.ext
  %3 = load ptr, ptr %uchars, align 8
  %4 = load i32, ptr %ucharsCapacity, align 8
  %sub16 = sub nsw i32 %4, %2
  %idx.ext17 = sext i32 %sub16 to i64
  %add.ptr18 = getelementptr inbounds i16, ptr %3, i64 %idx.ext17
  %call20 = tail call ptr @u_memcpy_75(ptr noundef nonnull %add.ptr, ptr noundef %add.ptr18, i32 noundef %2)
  br label %return.sink.split

return.sink.split:                                ; preds = %do.end, %if.end12
  %call.sink = phi ptr [ %call, %if.end12 ], [ null, %do.end ]
  %mul.lcssa.sink = phi i32 [ %mul, %if.end12 ], [ 0, %do.end ]
  %retval.0.ph = phi i8 [ 1, %if.end12 ], [ 0, %do.end ]
  %5 = load ptr, ptr %uchars, align 8
  tail call void @uprv_free_75(ptr noundef %5)
  store ptr %call.sink, ptr %uchars, align 8
  store i32 %mul.lcssa.sink, ptr %ucharsCapacity, align 8
  br label %return

return:                                           ; preds = %return.sink.split, %if.end, %entry
  %retval.0 = phi i8 [ 0, %entry ], [ 1, %if.end ], [ %retval.0.ph, %return.sink.split ]
  ret i8 %retval.0
}